; Function Attrs: mustprogress nounwind uwtable
define dso_local noundef ptr @_ZNK5clang6driver9ToolChain16getStaticLibToolEv(ptr noundef nonnull align 8 dereferenceable(2168) %0) local_unnamed_addr #0 align 2 {
  %2 = getelementptr inbounds nuw i8, ptr %0, i64 1712
  %3 = load ptr, ptr %2, align 8
  %.not = icmp eq ptr %3, null
  br i1 %.not, label %4, label %_ZNSt10unique_ptrIN5clang6driver4ToolESt14default_deleteIS2_EE5resetEPS2_.exit

4:                                                ; preds = %1
  %5 = load ptr, ptr %0, align 8
  %6 = getelementptr inbounds i8, ptr %5, i64 16
  %7 = load ptr, ptr %6, align 8
  %8 = tail call noundef ptr %7(ptr noundef nonnull align 8 dereferenceable(2168) %0) #25
  %9 = load ptr, ptr %2, align 8
  store ptr %8, ptr %2, align 8
  %.not.i.i = icmp eq ptr %9, null
  br i1 %.not.i.i, label %_ZNSt10unique_ptrIN5clang6driver4ToolESt14default_deleteIS2_EE5resetEPS2_.exit, label %_ZNKSt14default_deleteIN5clang6driver4ToolEEclEPS2_.exit.i.i

_ZNKSt14default_deleteIN5clang6driver4ToolEEclEPS2_.exit.i.i: ; preds = %4
  %10 = load ptr, ptr %9, align 8
  %11 = getelementptr inbounds i8, ptr %10, i64 8
  %12 = load ptr, ptr %11, align 8
  tail call void %12(ptr noundef nonnull align 8 dereferenceable(32) %9) #25
  %.pre = load ptr, ptr %2, align 8
  br label %_ZNSt10unique_ptrIN5clang6driver4ToolESt14default_deleteIS2_EE5resetEPS2_.exit

_ZNSt10unique_ptrIN5clang6driver4ToolESt14default_deleteIS2_EE5resetEPS2_.exit: ; preds = %_ZNKSt14default_deleteIN5clang6driver4ToolEEclEPS2_.exit.i.i, %4, %1
  %13 = phi ptr [ %.pre, %_ZNKSt14default_deleteIN5clang6driver4ToolEEclEPS2_.exit.i.i ], [ %8, %4 ], [ %3, %1 ]
  ret ptr %13
}